; Function Attrs: mustprogress nounwind uwtable
define dso_local void @_ZN5clang14JSONNodeDumper5VisitERKNS_20GenericSelectionExpr13AssociationTyILb1EEE(ptr noundef nonnull align 8 dereferenceable(1312) %0, ptr nocapture noundef nonnull readonly align 8 dereferenceable(17) %1) local_unnamed_addr #0 align 2 {
  %3 = alloca %"class.llvm::json::Value", align 8
  %4 = alloca %"class.llvm::json::Value", align 8
  %5 = getelementptr inbounds nuw i8, ptr %0, i64 1048
  %6 = getelementptr inbounds nuw i8, ptr %1, i64 8
  %7 = load ptr, ptr %6, align 8
  %.not = icmp eq ptr %7, null
  %8 = select i1 %.not, ptr @.str.458, ptr @.str.457
  %9 = select i1 %.not, i64 7, i64 4
  call void @_ZN4llvm4json5ValueC2ENS_9StringRefE(ptr noundef nonnull align 8 dereferenceable(40) %4, ptr nonnull %8, i64 %9)
  call void @_ZN4llvm4json7OStream14attributeBeginENS_9StringRefE(ptr noundef nonnull align 8 dereferenceable(176) %5, ptr nonnull @.str.456, i64 15) #20
  call void @_ZN4llvm4json7OStream5valueERKNS0_5ValueE(ptr noundef nonnull align 8 dereferenceable(176) %5, ptr noundef nonnull align 8 dereferenceable(40) %4) #20
  call void @_ZN4llvm4json7OStream12attributeEndEv(ptr noundef nonnull align 8 dereferenceable(176) %5) #20
  call void @_ZN4llvm4json5Value7destroyEv(ptr noundef nonnull align 8 dereferenceable(40) %4) #20
  %10 = getelementptr inbounds nuw i8, ptr %1, i64 16
  %11 = load i8, ptr %10, align 8
  %12 = trunc i8 %11 to i1
  call void @llvm.lifetime.start.p0(i64 40, ptr nonnull %3)
  br i1 %12, label %13, label %_ZN5clang14JSONNodeDumper19attributeOnlyIfTrueEN4llvm9StringRefEb.exit

13:                                               ; preds = %2
  store i16 1, ptr %3, align 8
  %14 = getelementptr inbounds nuw i8, ptr %3, i64 8
  store i8 1, ptr %14, align 8
  call void @_ZN4llvm4json7OStream14attributeBeginENS_9StringRefE(ptr noundef nonnull align 8 dereferenceable(176) %5, ptr nonnull @.str.459, i64 8) #20
  call void @_ZN4llvm4json7OStream5valueERKNS0_5ValueE(ptr noundef nonnull align 8 dereferenceable(176) %5, ptr noundef nonnull align 8 dereferenceable(40) %3) #20
  call void @_ZN4llvm4json7OStream12attributeEndEv(ptr noundef nonnull align 8 dereferenceable(176) %5) #20
  call void @_ZN4llvm4json5Value7destroyEv(ptr noundef nonnull align 8 dereferenceable(40) %3) #20
  br label %_ZN5clang14JSONNodeDumper19attributeOnlyIfTrueEN4llvm9StringRefEb.exit

_ZN5clang14JSONNodeDumper19attributeOnlyIfTrueEN4llvm9StringRefEb.exit: ; preds = %2, %13
  call void @llvm.lifetime.end.p0(i64 40, ptr nonnull %3)
  ret void
}